---
triple:          'arm64-apple-darwin'
binary-path:     seq_infer
relocations:
  - { offsetInCU: 0x3F, offset: 0x3F, size: 0x8, addend: 0x0, symName: _remote_server_ip, symObjAddr: 0x72FB8, symBinAddr: 0x10000C008, symSize: 0x0 }
  - { offsetInCU: 0x317D, offset: 0x317D, size: 0x8, addend: 0x0, symName: __ZN4TinsdvINS_10EthernetIIEEET_S2_RKNS_3PDUE, symObjAddr: 0xDC0, symBinAddr: 0x100002960, symSize: 0x44 }
  - { offsetInCU: 0x3443, offset: 0x3443, size: 0x8, addend: 0x0, symName: __ZN4Tins6Endian10be_to_hostItEET_S2_, symObjAddr: 0x28BC, symBinAddr: 0x10000445C, symSize: 0x28 }
  - { offsetInCU: 0x3478, offset: 0x3478, size: 0x8, addend: 0x0, symName: __ZN4Tins6Endian13change_endianItEET_S2_, symObjAddr: 0x28E4, symBinAddr: 0x100004484, symSize: 0x28 }
  - { offsetInCU: 0x34D5, offset: 0x34D5, size: 0x8, addend: 0x0, symName: __ZN4Tins6Endian16do_change_endianEt, symObjAddr: 0x2934, symBinAddr: 0x1000044D4, symSize: 0x20 }
  - { offsetInCU: 0x3501, offset: 0x3501, size: 0x8, addend: 0x0, symName: __ZN4Tins6Endian10be_to_hostIjEET_S2_, symObjAddr: 0x2954, symBinAddr: 0x1000044F4, symSize: 0x24 }
  - { offsetInCU: 0x3536, offset: 0x3536, size: 0x8, addend: 0x0, symName: __ZN4Tins6Endian13change_endianIjEET_S2_, symObjAddr: 0x2978, symBinAddr: 0x100004518, symSize: 0x24 }
  - { offsetInCU: 0x3593, offset: 0x3593, size: 0x8, addend: 0x0, symName: __ZN4Tins6Endian16do_change_endianEj, symObjAddr: 0x29C0, symBinAddr: 0x100004560, symSize: 0x18 }
  - { offsetInCU: 0x3613, offset: 0x3613, size: 0x8, addend: 0x0, symName: __ZN4TinsdVINS_10EthernetIIEEERT_S3_RKNS_3PDUE, symObjAddr: 0x3C70, symBinAddr: 0x100005810, symSize: 0x7C }
  - { offsetInCU: 0x3701, offset: 0x3701, size: 0x8, addend: 0x0, symName: __ZN4Tins9Internals14invoke_loop_cbIPFbRKNS_3PDUEENS_6PacketEEEbRT_RT0_PNSt3__19enable_ifIXaantsr12accepts_typeIS8_SA_EE5valuentsr12accepts_typeIS8_SB_EE5valueEbE4typeE, symObjAddr: 0x419C, symBinAddr: 0x100005D3C, symSize: 0x44 }
  - { offsetInCU: 0x13F0D, offset: 0x13F0D, size: 0x8, addend: 0x0, symName: __ZNSt3__124__put_character_sequenceB7v160006IcNS_11char_traitsIcEEEERNS_13basic_ostreamIT_T0_EES7_PKS4_m, symObjAddr: 0x3318, symBinAddr: 0x100004EB8, symSize: 0x1EC }
  - { offsetInCU: 0x16DC2, offset: 0x16DC2, size: 0x8, addend: 0x0, symName: __ZNSt3__1lsB7v160006INS_11char_traitsIcEEEERNS_13basic_ostreamIcT_EES6_PKc, symObjAddr: 0x278, symBinAddr: 0x100001E18, symSize: 0x48 }
  - { offsetInCU: 0x16E08, offset: 0x16E08, size: 0x8, addend: 0x0, symName: __ZNSt3__14endlB7v160006IcNS_11char_traitsIcEEEERNS_13basic_ostreamIT_T0_EES7_, symObjAddr: 0x2EC, symBinAddr: 0x100001E8C, symSize: 0x58 }
  - { offsetInCU: 0x16E53, offset: 0x16E53, size: 0x8, addend: 0x0, symName: __ZNSt3__1plB7v160006IcNS_11char_traitsIcEENS_9allocatorIcEEEENS_12basic_stringIT_T0_T1_EEPKS6_OS9_, symObjAddr: 0x18F8, symBinAddr: 0x100003498, symSize: 0x44 }
  - { offsetInCU: 0x16EAB, offset: 0x16EAB, size: 0x8, addend: 0x0, symName: __ZNSt3__1lsB7v160006IcNS_11char_traitsIcEENS_9allocatorIcEEEERNS_13basic_ostreamIT_T0_EES9_RKNS_12basic_stringIS6_S7_T1_EE, symObjAddr: 0x19A4, symBinAddr: 0x100003544, symSize: 0x4C }
  - { offsetInCU: 0x170DC, offset: 0x170DC, size: 0x8, addend: 0x0, symName: __ZNSt3__118__debug_db_erase_cB7v160006INS_6vectorIN4Tins9PDUOptionIhNS2_3TCPEEENS_9allocatorIS5_EEEEEEvPT_, symObjAddr: 0x1D1C, symBinAddr: 0x1000038BC, symSize: 0x10 }
  - { offsetInCU: 0x1710D, offset: 0x1710D, size: 0x8, addend: 0x0, symName: __ZNSt3__112__to_addressB7v160006IN4Tins9PDUOptionIhNS1_3TCPEEEEEPT_S6_, symObjAddr: 0x1E60, symBinAddr: 0x100003A00, symSize: 0x14 }
  - { offsetInCU: 0x17142, offset: 0x17142, size: 0x8, addend: 0x0, symName: __ZNSt3__119__libcpp_deallocateB7v160006EPvmm, symObjAddr: 0x2030, symBinAddr: 0x100003BD0, symSize: 0x30 }
  - { offsetInCU: 0x1718A, offset: 0x1718A, size: 0x8, addend: 0x0, symName: __ZNSt3__127__do_deallocate_handle_sizeB7v160006IJEEEvPvmDpT_, symObjAddr: 0x2060, symBinAddr: 0x100003C00, symSize: 0x28 }
  - { offsetInCU: 0x171C8, offset: 0x171C8, size: 0x8, addend: 0x0, symName: __ZNSt3__124__libcpp_operator_deleteB7v160006IJPvEEEvDpT_, symObjAddr: 0x2088, symBinAddr: 0x100003C28, symSize: 0x24 }
  - { offsetInCU: 0x171FD, offset: 0x171FD, size: 0x8, addend: 0x0, symName: __ZNSt3__118__debug_db_erase_cB7v160006INS_6vectorIN4Tins9PDUOptionIhNS2_4IPv6EEENS_9allocatorIS5_EEEEEEvPT_, symObjAddr: 0x23D0, symBinAddr: 0x100003F70, symSize: 0x10 }
  - { offsetInCU: 0x1722E, offset: 0x1722E, size: 0x8, addend: 0x0, symName: __ZNSt3__112__to_addressB7v160006IN4Tins9PDUOptionIhNS1_4IPv6EEEEEPT_S6_, symObjAddr: 0x2514, symBinAddr: 0x1000040B4, symSize: 0x14 }
  - { offsetInCU: 0x17263, offset: 0x17263, size: 0x8, addend: 0x0, symName: __ZNSt3__15equalB7v160006IPKhS2_EEbT_S3_T0_, symObjAddr: 0x277C, symBinAddr: 0x10000431C, symSize: 0x38 }
  - { offsetInCU: 0x172BD, offset: 0x172BD, size: 0x8, addend: 0x0, symName: __ZNSt3__15equalB7v160006IPKhS2_NS_10__equal_toEEEbT_S4_T0_T1_, symObjAddr: 0x27E0, symBinAddr: 0x100004380, symSize: 0xA8 }
  - { offsetInCU: 0x17369, offset: 0x17369, size: 0x8, addend: 0x0, symName: __ZNSt3__119__debug_db_insert_cB7v160006INS_12basic_stringIcNS_11char_traitsIcEENS_9allocatorIcEEEEEEvPT_, symObjAddr: 0x2AC4, symBinAddr: 0x100004664, symSize: 0x10 }
  - { offsetInCU: 0x1739A, offset: 0x1739A, size: 0x8, addend: 0x0, symName: __ZNSt3__118__constexpr_strlenB7v160006EPKc, symObjAddr: 0x2C9C, symBinAddr: 0x10000483C, symSize: 0x24 }
  - { offsetInCU: 0x173F9, offset: 0x173F9, size: 0x8, addend: 0x0, symName: __ZNSt3__116__pad_and_outputB7v160006IcNS_11char_traitsIcEEEENS_19ostreambuf_iteratorIT_T0_EES6_PKS4_S8_S8_RNS_8ios_baseES4_, symObjAddr: 0x3520, symBinAddr: 0x1000050C0, symSize: 0x240 }
  - { offsetInCU: 0x174C8, offset: 0x174C8, size: 0x8, addend: 0x0, symName: __ZNSt3__112__to_addressB7v160006IKcEEPT_S3_, symObjAddr: 0x3998, symBinAddr: 0x100005538, symSize: 0x14 }
  - { offsetInCU: 0x17530, offset: 0x17530, size: 0x8, addend: 0x0, symName: __ZNSt3__19use_facetB7v160006INS_5ctypeIcEEEERKT_RKNS_6localeE, symObjAddr: 0x3BA0, symBinAddr: 0x100005740, symSize: 0x2C }
  - { offsetInCU: 0x179FF, offset: 0x179FF, size: 0x8, addend: 0x0, symName: __ZNSt3__14swapB7v160006IPN4Tins3PDUEEENS_9enable_ifIXaasr21is_move_constructibleIT_EE5valuesr18is_move_assignableIS5_EE5valueEvE4typeERS5_S8_, symObjAddr: 0x3E24, symBinAddr: 0x1000059C4, symSize: 0x3C }
  - { offsetInCU: 0x17AE0, offset: 0x17AE0, size: 0x8, addend: 0x0, symName: __ZNSt3__115__debug_db_swapB7v160006INS_12basic_stringIcNS_11char_traitsIcEENS_9allocatorIcEEEEEEvPT_S8_, symObjAddr: 0x45DC, symBinAddr: 0x10000617C, symSize: 0x14 }
  - { offsetInCU: 0x17F1C, offset: 0x17F1C, size: 0x8, addend: 0x0, symName: __ZNSt3__122__libcpp_thread_createB7v160006EPP17_opaque_pthread_tPFPvS3_ES3_, symObjAddr: 0x488C, symBinAddr: 0x10000642C, symSize: 0x38 }
  - { offsetInCU: 0x17F68, offset: 0x17F68, size: 0x8, addend: 0x0, symName: __ZNSt3__114__thread_proxyB7v160006INS_5tupleIJNS_10unique_ptrINS_15__thread_structENS_14default_deleteIS3_EEEEPFvvEEEEEEPvSA_, symObjAddr: 0x48C4, symBinAddr: 0x100006464, symSize: 0x90 }
  - { offsetInCU: 0x180C9, offset: 0x180C9, size: 0x8, addend: 0x0, symName: __ZNSt3__13getB7v160006ILm0EJNS_10unique_ptrINS_15__thread_structENS_14default_deleteIS2_EEEEPFvvEEEERNS_13tuple_elementIXT_ENS_5tupleIJDpT0_EEEE4typeERSC_, symObjAddr: 0x4F74, symBinAddr: 0x100006B14, symSize: 0x24 }
  - { offsetInCU: 0x18111, offset: 0x18111, size: 0x8, addend: 0x0, symName: __ZNSt3__116__thread_executeB7v160006INS_10unique_ptrINS_15__thread_structENS_14default_deleteIS2_EEEEPFvvEJEJEEEvRNS_5tupleIJT_T0_DpT1_EEENS_15__tuple_indicesIJXspT2_EEEE, symObjAddr: 0x4F98, symBinAddr: 0x100006B38, symSize: 0x28 }
  - { offsetInCU: 0x18162, offset: 0x18162, size: 0x8, addend: 0x0, symName: __ZNSt3__116__libcpp_tls_setB7v160006EmPv, symObjAddr: 0x4FC0, symBinAddr: 0x100006B60, symSize: 0x2C }
  - { offsetInCU: 0x1819F, offset: 0x1819F, size: 0x8, addend: 0x0, symName: __ZNSt3__18__invokeB7v160006IPFvvEJEEEDTclclsr3stdE7declvalIT_EEspclsr3stdE7declvalIT0_EEEEOS3_DpOS4_, symObjAddr: 0x5000, symBinAddr: 0x100006BA0, symSize: 0x28 }
  - { offsetInCU: 0x181D7, offset: 0x181D7, size: 0x8, addend: 0x0, symName: __ZNSt3__13getB7v160006ILm1EJNS_10unique_ptrINS_15__thread_structENS_14default_deleteIS2_EEEEPFvvEEEERNS_13tuple_elementIXT_ENS_5tupleIJDpT0_EEEE4typeERSC_, symObjAddr: 0x5028, symBinAddr: 0x100006BC8, symSize: 0x28 }
  - { offsetInCU: 0x18A91, offset: 0x18A91, size: 0x8, addend: 0x0, symName: _attacker_private_ip, symObjAddr: 0x72FC8, symBinAddr: 0x10000C018, symSize: 0x0 }
  - { offsetInCU: 0x18AA6, offset: 0x18AA6, size: 0x8, addend: 0x0, symName: _router_wan_ip, symObjAddr: 0x72FD8, symBinAddr: 0x10000C028, symSize: 0x0 }
  - { offsetInCU: 0x18ABB, offset: 0x18ABB, size: 0x8, addend: 0x0, symName: _remote_server_port, symObjAddr: 0x72FE8, symBinAddr: 0x10000C038, symSize: 0x0 }
  - { offsetInCU: 0x18AE2, offset: 0x18AE2, size: 0x8, addend: 0x0, symName: _guessed_client_port, symObjAddr: 0x72FEA, symBinAddr: 0x10000C03A, symSize: 0x0 }
  - { offsetInCU: 0x18AF7, offset: 0x18AF7, size: 0x8, addend: 0x0, symName: _exact_seq, symObjAddr: 0x72FEC, symBinAddr: 0x10000C03C, symSize: 0x0 }
  - { offsetInCU: 0x18B0C, offset: 0x18B0C, size: 0x8, addend: 0x0, symName: _exact_ack, symObjAddr: 0x72FF0, symBinAddr: 0x10000C040, symSize: 0x0 }
  - { offsetInCU: 0x18B21, offset: 0x18B21, size: 0x8, addend: 0x0, symName: _seq_got, symObjAddr: 0x72FF4, symBinAddr: 0x10000C044, symSize: 0x0 }
  - { offsetInCU: 0x18B36, offset: 0x18B36, size: 0x8, addend: 0x0, symName: _packet_iface, symObjAddr: 0x72FF8, symBinAddr: 0x10000C048, symSize: 0x0 }
  - { offsetInCU: 0x18B4B, offset: 0x18B4B, size: 0x8, addend: 0x0, symName: _sniff_filter, symObjAddr: 0x73010, symBinAddr: 0x10000C060, symSize: 0x0 }
  - { offsetInCU: 0x18B60, offset: 0x18B60, size: 0x8, addend: 0x0, symName: _self_mac_address, symObjAddr: 0x73028, symBinAddr: 0x10000C078, symSize: 0x0 }
  - { offsetInCU: 0x18B75, offset: 0x18B75, size: 0x8, addend: 0x0, symName: _router_mac_address, symObjAddr: 0x73040, symBinAddr: 0x10000C090, symSize: 0x0 }
  - { offsetInCU: 0x18B8A, offset: 0x18B8A, size: 0x8, addend: 0x0, symName: _debug, symObjAddr: 0x5820, symBinAddr: 0x10000C000, symSize: 0x0 }
  - { offsetInCU: 0x1C670, offset: 0x1C670, size: 0x8, addend: 0x0, symName: __ZNSt3__112basic_stringIcNS_11char_traitsIcEENS_9allocatorIcEEEC1B7v160006Ev, symObjAddr: 0x0, symBinAddr: 0x100001BA0, symSize: 0x2C }
  - { offsetInCU: 0x1C699, offset: 0x1C699, size: 0x8, addend: 0x0, symName: __Z8__get_us7timeval, symObjAddr: 0x2C, symBinAddr: 0x100001BCC, symSize: 0x30 }
  - { offsetInCU: 0x1C6C6, offset: 0x1C6C6, size: 0x8, addend: 0x0, symName: __Z20save_seq_ack_to_filev, symObjAddr: 0x5C, symBinAddr: 0x100001BFC, symSize: 0x134 }
  - { offsetInCU: 0x1C78A, offset: 0x1C78A, size: 0x8, addend: 0x0, symName: __ZNSt3__114basic_ofstreamIcNS_11char_traitsIcEEEC1Ev, symObjAddr: 0x190, symBinAddr: 0x100001D30, symSize: 0xE8 }
  - { offsetInCU: 0x1C7B6, offset: 0x1C7B6, size: 0x8, addend: 0x0, symName: __ZNSt3__113basic_ostreamIcNS_11char_traitsIcEEElsB7v160006EPFRS3_S4_E, symObjAddr: 0x2C0, symBinAddr: 0x100001E60, symSize: 0x2C }
  - { offsetInCU: 0x1C7EA, offset: 0x1C7EA, size: 0x8, addend: 0x0, symName: __ZNSt3__114basic_ofstreamIcNS_11char_traitsIcEEE5closeEv, symObjAddr: 0x344, symBinAddr: 0x100001EE4, symSize: 0x58 }
  - { offsetInCU: 0x1C817, offset: 0x1C817, size: 0x8, addend: 0x0, symName: __ZNSt3__114basic_ofstreamIcNS_11char_traitsIcEEED1Ev, symObjAddr: 0x39C, symBinAddr: 0x100001F3C, symSize: 0x40 }
  - { offsetInCU: 0x1C844, offset: 0x1C844, size: 0x8, addend: 0x0, symName: __Z11get_seq_ackv, symObjAddr: 0x3DC, symBinAddr: 0x100001F7C, symSize: 0x9E4 }
  - { offsetInCU: 0x1C8D4, offset: 0x1C8D4, size: 0x8, addend: 0x0, symName: __ZN4Tins9HWAddressILm6EEC1ERKNSt3__112basic_stringIcNS2_11char_traitsIcEENS2_9allocatorIcEEEE, symObjAddr: 0xE04, symBinAddr: 0x1000029A4, symSize: 0x34 }
  - { offsetInCU: 0x1C90C, offset: 0x1C90C, size: 0x8, addend: 0x0, symName: __ZN4Tins3TCPD1Ev, symObjAddr: 0xE38, symBinAddr: 0x1000029D8, symSize: 0x2C }
  - { offsetInCU: 0x1C962, offset: 0x1C962, size: 0x8, addend: 0x0, symName: __ZN4Tins10EthernetIID1Ev, symObjAddr: 0xE64, symBinAddr: 0x100002A04, symSize: 0x2C }
  - { offsetInCU: 0x1C98E, offset: 0x1C98E, size: 0x8, addend: 0x0, symName: __ZN4Tins4IPv6D1Ev, symObjAddr: 0xE90, symBinAddr: 0x100002A30, symSize: 0x2C }
  - { offsetInCU: 0x1C9BF, offset: 0x1C9BF, size: 0x8, addend: 0x0, symName: __ZN4Tins3PDU9rfind_pduINS_4IPv6EEERT_NS0_7PDUTypeE, symObjAddr: 0xEBC, symBinAddr: 0x100002A5C, symSize: 0x98 }
  - { offsetInCU: 0x1CA11, offset: 0x1CA11, size: 0x8, addend: 0x0, symName: __ZN4Tins3PDU9rfind_pduINS_3TCPEEERT_NS0_7PDUTypeE, symObjAddr: 0xF54, symBinAddr: 0x100002AF4, symSize: 0x98 }
  - { offsetInCU: 0x1CA5E, offset: 0x1CA5E, size: 0x8, addend: 0x0, symName: __ZN4Tins10small_uintILm1EEC1Eh, symObjAddr: 0xFEC, symBinAddr: 0x100002B8C, symSize: 0x34 }
  - { offsetInCU: 0x1CA95, offset: 0x1CA95, size: 0x8, addend: 0x0, symName: __Z8callbackRKN4Tins3PDUE, symObjAddr: 0x1020, symBinAddr: 0x100002BC0, symSize: 0x190 }
  - { offsetInCU: 0x1CAE3, offset: 0x1CAE3, size: 0x8, addend: 0x0, symName: __ZNK4Tins3PDU9rfind_pduINS_4IPv6EEERKT_NS0_7PDUTypeE, symObjAddr: 0x11B0, symBinAddr: 0x100002D50, symSize: 0x2C }
  - { offsetInCU: 0x1CB26, offset: 0x1CB26, size: 0x8, addend: 0x0, symName: __ZNK4Tins3PDU9rfind_pduINS_3TCPEEERKT_NS0_7PDUTypeE, symObjAddr: 0x11DC, symBinAddr: 0x100002D7C, symSize: 0x2C }
  - { offsetInCU: 0x1CB64, offset: 0x1CB64, size: 0x8, addend: 0x0, symName: __ZNK4Tins4IPv611next_headerEv, symObjAddr: 0x1208, symBinAddr: 0x100002DA8, symSize: 0x18 }
  - { offsetInCU: 0x1CB8A, offset: 0x1CB8A, size: 0x8, addend: 0x0, symName: __ZNK4Tins4IPv68src_addrEv, symObjAddr: 0x1220, symBinAddr: 0x100002DC0, symSize: 0x78 }
  - { offsetInCU: 0x1CBB0, offset: 0x1CBB0, size: 0x8, addend: 0x0, symName: __ZNK4Tins11IPv6AddresseqERKS0_, symObjAddr: 0x1298, symBinAddr: 0x100002E38, symSize: 0x50 }
  - { offsetInCU: 0x1CBE4, offset: 0x1CBE4, size: 0x8, addend: 0x0, symName: __ZNK4Tins3TCP5sportEv, symObjAddr: 0x12E8, symBinAddr: 0x100002E88, symSize: 0x2C }
  - { offsetInCU: 0x1CC0A, offset: 0x1CC0A, size: 0x8, addend: 0x0, symName: __ZNK4Tins3TCP5dportEv, symObjAddr: 0x1314, symBinAddr: 0x100002EB4, symSize: 0x2C }
  - { offsetInCU: 0x1CC30, offset: 0x1CC30, size: 0x8, addend: 0x0, symName: __ZNK4Tins10small_uintILm12EEcvtEv, symObjAddr: 0x1340, symBinAddr: 0x100002EE0, symSize: 0x18 }
  - { offsetInCU: 0x1CC56, offset: 0x1CC56, size: 0x8, addend: 0x0, symName: __ZNK4Tins3TCP3seqEv, symObjAddr: 0x1358, symBinAddr: 0x100002EF8, symSize: 0x28 }
  - { offsetInCU: 0x1CC7C, offset: 0x1CC7C, size: 0x8, addend: 0x0, symName: __ZNK4Tins3TCP7ack_seqEv, symObjAddr: 0x1380, symBinAddr: 0x100002F20, symSize: 0x28 }
  - { offsetInCU: 0x1CCA2, offset: 0x1CCA2, size: 0x8, addend: 0x0, symName: __Z13sniff_packetsv, symObjAddr: 0x13A8, symBinAddr: 0x100002F48, symSize: 0xC8 }
  - { offsetInCU: 0x1CCDD, offset: 0x1CCDD, size: 0x8, addend: 0x0, symName: __ZN4Tins11BaseSniffer10sniff_loopIPFbRKNS_3PDUEEEEvT_j, symObjAddr: 0x1470, symBinAddr: 0x100003010, symSize: 0x1C4 }
  - { offsetInCU: 0x1CD66, offset: 0x1CD66, size: 0x8, addend: 0x0, symName: __ZN4Tins7SnifferD1Ev, symObjAddr: 0x1634, symBinAddr: 0x1000031D4, symSize: 0x2C }
  - { offsetInCU: 0x1CD93, offset: 0x1CD93, size: 0x8, addend: 0x0, symName: __ZN4Tins20SnifferConfigurationD1Ev, symObjAddr: 0x1660, symBinAddr: 0x100003200, symSize: 0x2C }
  - { offsetInCU: 0x1CDC0, offset: 0x1CDC0, size: 0x8, addend: 0x0, symName: _main, symObjAddr: 0x168C, symBinAddr: 0x10000322C, symSize: 0x240 }
  - { offsetInCU: 0x1CE06, offset: 0x1CE06, size: 0x8, addend: 0x0, symName: __ZNSt3__112basic_stringIcNS_11char_traitsIcEENS_9allocatorIcEEEaSB7v160006EPKc, symObjAddr: 0x18CC, symBinAddr: 0x10000346C, symSize: 0x2C }
  - { offsetInCU: 0x1CE40, offset: 0x1CE40, size: 0x8, addend: 0x0, symName: __ZNSt3__112basic_stringIcNS_11char_traitsIcEENS_9allocatorIcEEEC1B7v160006IDnEEPKc, symObjAddr: 0x193C, symBinAddr: 0x1000034DC, symSize: 0x34 }
  - { offsetInCU: 0x1CE7E, offset: 0x1CE7E, size: 0x8, addend: 0x0, symName: __ZNSt3__112basic_stringIcNS_11char_traitsIcEENS_9allocatorIcEEEaSB7v160006EOS5_, symObjAddr: 0x1970, symBinAddr: 0x100003510, symSize: 0x34 }
  - { offsetInCU: 0x1CF75, offset: 0x1CF75, size: 0x8, addend: 0x0, symName: __ZNSt3__16threadC1IRFvvEJEvEEOT_DpOT0_, symObjAddr: 0x19F0, symBinAddr: 0x100003590, symSize: 0x34 }
  - { offsetInCU: 0x1CFBD, offset: 0x1CFBD, size: 0x8, addend: 0x0, symName: __ZNSt3__114basic_ofstreamIcNS_11char_traitsIcEEED2Ev, symObjAddr: 0x1A24, symBinAddr: 0x1000035C4, symSize: 0x64 }
  - { offsetInCU: 0x1CFF7, offset: 0x1CFF7, size: 0x8, addend: 0x0, symName: __ZTv0_n24_NSt3__114basic_ofstreamIcNS_11char_traitsIcEEED1Ev, symObjAddr: 0x1A88, symBinAddr: 0x100003628, symSize: 0x28 }
  - { offsetInCU: 0x1D00E, offset: 0x1D00E, size: 0x8, addend: 0x0, symName: __ZN4Tins3TCPD2Ev, symObjAddr: 0x1AB0, symBinAddr: 0x100003650, symSize: 0x48 }
  - { offsetInCU: 0x1D03A, offset: 0x1D03A, size: 0x8, addend: 0x0, symName: __ZNSt3__16vectorIN4Tins9PDUOptionIhNS1_3TCPEEENS_9allocatorIS4_EEED1B7v160006Ev, symObjAddr: 0x1AF8, symBinAddr: 0x100003698, symSize: 0x2C }
  - { offsetInCU: 0x1D064, offset: 0x1D064, size: 0x8, addend: 0x0, symName: __ZNSt3__16vectorIN4Tins9PDUOptionIhNS1_3TCPEEENS_9allocatorIS4_EEED2B7v160006Ev, symObjAddr: 0x1B24, symBinAddr: 0x1000036C4, symSize: 0x44 }
  - { offsetInCU: 0x1D08E, offset: 0x1D08E, size: 0x8, addend: 0x0, symName: __ZNSt3__16vectorIN4Tins9PDUOptionIhNS1_3TCPEEENS_9allocatorIS4_EEE16__destroy_vectorC1ERS7_, symObjAddr: 0x1B68, symBinAddr: 0x100003708, symSize: 0x34 }
  - { offsetInCU: 0x1D0C7, offset: 0x1D0C7, size: 0x8, addend: 0x0, symName: __ZNSt3__16vectorIN4Tins9PDUOptionIhNS1_3TCPEEENS_9allocatorIS4_EEE16__destroy_vectorclB7v160006Ev, symObjAddr: 0x1BA8, symBinAddr: 0x100003748, symSize: 0x9C }
  - { offsetInCU: 0x1D0ED, offset: 0x1D0ED, size: 0x8, addend: 0x0, symName: __ZNSt3__16vectorIN4Tins9PDUOptionIhNS1_3TCPEEENS_9allocatorIS4_EEE16__destroy_vectorC2ERS7_, symObjAddr: 0x1C44, symBinAddr: 0x1000037E4, symSize: 0x20 }
  - { offsetInCU: 0x1D126, offset: 0x1D126, size: 0x8, addend: 0x0, symName: __ZNKSt3__16vectorIN4Tins9PDUOptionIhNS1_3TCPEEENS_9allocatorIS4_EEE17__annotate_deleteB7v160006Ev, symObjAddr: 0x1C64, symBinAddr: 0x100003804, symSize: 0xB8 }
  - { offsetInCU: 0x1D14C, offset: 0x1D14C, size: 0x8, addend: 0x0, symName: __ZNSt3__16vectorIN4Tins9PDUOptionIhNS1_3TCPEEENS_9allocatorIS4_EEE7__clearB7v160006Ev, symObjAddr: 0x1D2C, symBinAddr: 0x1000038CC, symSize: 0x28 }
  - { offsetInCU: 0x1D172, offset: 0x1D172, size: 0x8, addend: 0x0, symName: __ZNSt3__116allocator_traitsINS_9allocatorIN4Tins9PDUOptionIhNS2_3TCPEEEEEE10deallocateB7v160006ERS6_PS5_m, symObjAddr: 0x1D54, symBinAddr: 0x1000038F4, symSize: 0x34 }
  - { offsetInCU: 0x1D1B4, offset: 0x1D1B4, size: 0x8, addend: 0x0, symName: __ZNSt3__16vectorIN4Tins9PDUOptionIhNS1_3TCPEEENS_9allocatorIS4_EEE7__allocB7v160006Ev, symObjAddr: 0x1D88, symBinAddr: 0x100003928, symSize: 0x28 }
  - { offsetInCU: 0x1D1DA, offset: 0x1D1DA, size: 0x8, addend: 0x0, symName: __ZNKSt3__16vectorIN4Tins9PDUOptionIhNS1_3TCPEEENS_9allocatorIS4_EEE8capacityB7v160006Ev, symObjAddr: 0x1DB0, symBinAddr: 0x100003950, symSize: 0x40 }
  - { offsetInCU: 0x1D200, offset: 0x1D200, size: 0x8, addend: 0x0, symName: __ZNKSt3__16vectorIN4Tins9PDUOptionIhNS1_3TCPEEENS_9allocatorIS4_EEE31__annotate_contiguous_containerB7v160006EPKvS9_S9_S9_, symObjAddr: 0x1DF0, symBinAddr: 0x100003990, symSize: 0x20 }
  - { offsetInCU: 0x1D252, offset: 0x1D252, size: 0x8, addend: 0x0, symName: __ZNKSt3__16vectorIN4Tins9PDUOptionIhNS1_3TCPEEENS_9allocatorIS4_EEE4dataB7v160006Ev, symObjAddr: 0x1E10, symBinAddr: 0x1000039B0, symSize: 0x28 }
  - { offsetInCU: 0x1D278, offset: 0x1D278, size: 0x8, addend: 0x0, symName: __ZNKSt3__16vectorIN4Tins9PDUOptionIhNS1_3TCPEEENS_9allocatorIS4_EEE4sizeB7v160006Ev, symObjAddr: 0x1E38, symBinAddr: 0x1000039D8, symSize: 0x28 }
  - { offsetInCU: 0x1D29E, offset: 0x1D29E, size: 0x8, addend: 0x0, symName: __ZNSt3__16vectorIN4Tins9PDUOptionIhNS1_3TCPEEENS_9allocatorIS4_EEE22__base_destruct_at_endB7v160006EPS4_, symObjAddr: 0x1E74, symBinAddr: 0x100003A14, symSize: 0x8C }
  - { offsetInCU: 0x1D2E2, offset: 0x1D2E2, size: 0x8, addend: 0x0, symName: __ZNSt3__116allocator_traitsINS_9allocatorIN4Tins9PDUOptionIhNS2_3TCPEEEEEE7destroyB7v160006IS5_vEEvRS6_PT_, symObjAddr: 0x1F00, symBinAddr: 0x100003AA0, symSize: 0x2C }
  - { offsetInCU: 0x1D31F, offset: 0x1D31F, size: 0x8, addend: 0x0, symName: __ZNSt3__19allocatorIN4Tins9PDUOptionIhNS1_3TCPEEEE7destroyB7v160006EPS4_, symObjAddr: 0x1F2C, symBinAddr: 0x100003ACC, symSize: 0x28 }
  - { offsetInCU: 0x1D353, offset: 0x1D353, size: 0x8, addend: 0x0, symName: __ZN4Tins9PDUOptionIhNS_3TCPEED1Ev, symObjAddr: 0x1F54, symBinAddr: 0x100003AF4, symSize: 0x2C }
  - { offsetInCU: 0x1D37D, offset: 0x1D37D, size: 0x8, addend: 0x0, symName: __ZN4Tins9PDUOptionIhNS_3TCPEED2Ev, symObjAddr: 0x1F80, symBinAddr: 0x100003B20, symSize: 0x70 }
  - { offsetInCU: 0x1D3A7, offset: 0x1D3A7, size: 0x8, addend: 0x0, symName: __ZNSt3__19allocatorIN4Tins9PDUOptionIhNS1_3TCPEEEE10deallocateB7v160006EPS4_m, symObjAddr: 0x1FF0, symBinAddr: 0x100003B90, symSize: 0x40 }
  - { offsetInCU: 0x1D3E9, offset: 0x1D3E9, size: 0x8, addend: 0x0, symName: __ZNSt3__117__compressed_pairIPN4Tins9PDUOptionIhNS1_3TCPEEENS_9allocatorIS4_EEE6secondB7v160006Ev, symObjAddr: 0x20AC, symBinAddr: 0x100003C4C, symSize: 0x24 }
  - { offsetInCU: 0x1D40F, offset: 0x1D40F, size: 0x8, addend: 0x0, symName: __ZNSt3__122__compressed_pair_elemINS_9allocatorIN4Tins9PDUOptionIhNS2_3TCPEEEEELi1ELb1EE5__getB7v160006Ev, symObjAddr: 0x20D0, symBinAddr: 0x100003C70, symSize: 0x14 }
  - { offsetInCU: 0x1D435, offset: 0x1D435, size: 0x8, addend: 0x0, symName: __ZNKSt3__16vectorIN4Tins9PDUOptionIhNS1_3TCPEEENS_9allocatorIS4_EEE9__end_capB7v160006Ev, symObjAddr: 0x20E4, symBinAddr: 0x100003C84, symSize: 0x28 }
  - { offsetInCU: 0x1D45B, offset: 0x1D45B, size: 0x8, addend: 0x0, symName: __ZNKSt3__117__compressed_pairIPN4Tins9PDUOptionIhNS1_3TCPEEENS_9allocatorIS4_EEE5firstB7v160006Ev, symObjAddr: 0x210C, symBinAddr: 0x100003CAC, symSize: 0x24 }
  - { offsetInCU: 0x1D481, offset: 0x1D481, size: 0x8, addend: 0x0, symName: __ZNKSt3__122__compressed_pair_elemIPN4Tins9PDUOptionIhNS1_3TCPEEELi0ELb0EE5__getB7v160006Ev, symObjAddr: 0x2130, symBinAddr: 0x100003CD0, symSize: 0x14 }
  - { offsetInCU: 0x1D4A7, offset: 0x1D4A7, size: 0x8, addend: 0x0, symName: __ZN4Tins10EthernetIID2Ev, symObjAddr: 0x2144, symBinAddr: 0x100003CE4, symSize: 0x2C }
  - { offsetInCU: 0x1D4D3, offset: 0x1D4D3, size: 0x8, addend: 0x0, symName: __ZN4Tins4IPv6D2Ev, symObjAddr: 0x2170, symBinAddr: 0x100003D10, symSize: 0x48 }
  - { offsetInCU: 0x1D4FF, offset: 0x1D4FF, size: 0x8, addend: 0x0, symName: __ZNSt3__16vectorIN4Tins9PDUOptionIhNS1_4IPv6EEENS_9allocatorIS4_EEED1B7v160006Ev, symObjAddr: 0x21B8, symBinAddr: 0x100003D58, symSize: 0x2C }
  - { offsetInCU: 0x1D529, offset: 0x1D529, size: 0x8, addend: 0x0, symName: __ZNSt3__16vectorIN4Tins9PDUOptionIhNS1_4IPv6EEENS_9allocatorIS4_EEED2B7v160006Ev, symObjAddr: 0x21E4, symBinAddr: 0x100003D84, symSize: 0x44 }
  - { offsetInCU: 0x1D553, offset: 0x1D553, size: 0x8, addend: 0x0, symName: __ZNSt3__16vectorIN4Tins9PDUOptionIhNS1_4IPv6EEENS_9allocatorIS4_EEE16__destroy_vectorC1ERS7_, symObjAddr: 0x2228, symBinAddr: 0x100003DC8, symSize: 0x34 }
  - { offsetInCU: 0x1D58C, offset: 0x1D58C, size: 0x8, addend: 0x0, symName: __ZNSt3__16vectorIN4Tins9PDUOptionIhNS1_4IPv6EEENS_9allocatorIS4_EEE16__destroy_vectorclB7v160006Ev, symObjAddr: 0x225C, symBinAddr: 0x100003DFC, symSize: 0x9C }
  - { offsetInCU: 0x1D5B2, offset: 0x1D5B2, size: 0x8, addend: 0x0, symName: __ZNSt3__16vectorIN4Tins9PDUOptionIhNS1_4IPv6EEENS_9allocatorIS4_EEE16__destroy_vectorC2ERS7_, symObjAddr: 0x22F8, symBinAddr: 0x100003E98, symSize: 0x20 }
  - { offsetInCU: 0x1D5EB, offset: 0x1D5EB, size: 0x8, addend: 0x0, symName: __ZNKSt3__16vectorIN4Tins9PDUOptionIhNS1_4IPv6EEENS_9allocatorIS4_EEE17__annotate_deleteB7v160006Ev, symObjAddr: 0x2318, symBinAddr: 0x100003EB8, symSize: 0xB8 }
  - { offsetInCU: 0x1D611, offset: 0x1D611, size: 0x8, addend: 0x0, symName: __ZNSt3__16vectorIN4Tins9PDUOptionIhNS1_4IPv6EEENS_9allocatorIS4_EEE7__clearB7v160006Ev, symObjAddr: 0x23E0, symBinAddr: 0x100003F80, symSize: 0x28 }
  - { offsetInCU: 0x1D637, offset: 0x1D637, size: 0x8, addend: 0x0, symName: __ZNSt3__116allocator_traitsINS_9allocatorIN4Tins9PDUOptionIhNS2_4IPv6EEEEEE10deallocateB7v160006ERS6_PS5_m, symObjAddr: 0x2408, symBinAddr: 0x100003FA8, symSize: 0x34 }
  - { offsetInCU: 0x1D679, offset: 0x1D679, size: 0x8, addend: 0x0, symName: __ZNSt3__16vectorIN4Tins9PDUOptionIhNS1_4IPv6EEENS_9allocatorIS4_EEE7__allocB7v160006Ev, symObjAddr: 0x243C, symBinAddr: 0x100003FDC, symSize: 0x28 }
  - { offsetInCU: 0x1D69F, offset: 0x1D69F, size: 0x8, addend: 0x0, symName: __ZNKSt3__16vectorIN4Tins9PDUOptionIhNS1_4IPv6EEENS_9allocatorIS4_EEE8capacityB7v160006Ev, symObjAddr: 0x2464, symBinAddr: 0x100004004, symSize: 0x40 }
  - { offsetInCU: 0x1D6C5, offset: 0x1D6C5, size: 0x8, addend: 0x0, symName: __ZNKSt3__16vectorIN4Tins9PDUOptionIhNS1_4IPv6EEENS_9allocatorIS4_EEE31__annotate_contiguous_containerB7v160006EPKvS9_S9_S9_, symObjAddr: 0x24A4, symBinAddr: 0x100004044, symSize: 0x20 }
  - { offsetInCU: 0x1D717, offset: 0x1D717, size: 0x8, addend: 0x0, symName: __ZNKSt3__16vectorIN4Tins9PDUOptionIhNS1_4IPv6EEENS_9allocatorIS4_EEE4dataB7v160006Ev, symObjAddr: 0x24C4, symBinAddr: 0x100004064, symSize: 0x28 }
  - { offsetInCU: 0x1D73D, offset: 0x1D73D, size: 0x8, addend: 0x0, symName: __ZNKSt3__16vectorIN4Tins9PDUOptionIhNS1_4IPv6EEENS_9allocatorIS4_EEE4sizeB7v160006Ev, symObjAddr: 0x24EC, symBinAddr: 0x10000408C, symSize: 0x28 }
  - { offsetInCU: 0x1D763, offset: 0x1D763, size: 0x8, addend: 0x0, symName: __ZNSt3__16vectorIN4Tins9PDUOptionIhNS1_4IPv6EEENS_9allocatorIS4_EEE22__base_destruct_at_endB7v160006EPS4_, symObjAddr: 0x2528, symBinAddr: 0x1000040C8, symSize: 0x8C }
  - { offsetInCU: 0x1D7A7, offset: 0x1D7A7, size: 0x8, addend: 0x0, symName: __ZNSt3__116allocator_traitsINS_9allocatorIN4Tins9PDUOptionIhNS2_4IPv6EEEEEE7destroyB7v160006IS5_vEEvRS6_PT_, symObjAddr: 0x25B4, symBinAddr: 0x100004154, symSize: 0x2C }
  - { offsetInCU: 0x1D7E4, offset: 0x1D7E4, size: 0x8, addend: 0x0, symName: __ZNSt3__19allocatorIN4Tins9PDUOptionIhNS1_4IPv6EEEE7destroyB7v160006EPS4_, symObjAddr: 0x25E0, symBinAddr: 0x100004180, symSize: 0x28 }
  - { offsetInCU: 0x1D818, offset: 0x1D818, size: 0x8, addend: 0x0, symName: __ZN4Tins9PDUOptionIhNS_4IPv6EED1Ev, symObjAddr: 0x2608, symBinAddr: 0x1000041A8, symSize: 0x2C }
  - { offsetInCU: 0x1D842, offset: 0x1D842, size: 0x8, addend: 0x0, symName: __ZN4Tins9PDUOptionIhNS_4IPv6EED2Ev, symObjAddr: 0x2634, symBinAddr: 0x1000041D4, symSize: 0x70 }
  - { offsetInCU: 0x1D86C, offset: 0x1D86C, size: 0x8, addend: 0x0, symName: __ZNSt3__19allocatorIN4Tins9PDUOptionIhNS1_4IPv6EEEE10deallocateB7v160006EPS4_m, symObjAddr: 0x26A4, symBinAddr: 0x100004244, symSize: 0x40 }
  - { offsetInCU: 0x1D8AE, offset: 0x1D8AE, size: 0x8, addend: 0x0, symName: __ZNSt3__117__compressed_pairIPN4Tins9PDUOptionIhNS1_4IPv6EEENS_9allocatorIS4_EEE6secondB7v160006Ev, symObjAddr: 0x26E4, symBinAddr: 0x100004284, symSize: 0x24 }
  - { offsetInCU: 0x1D8D4, offset: 0x1D8D4, size: 0x8, addend: 0x0, symName: __ZNSt3__122__compressed_pair_elemINS_9allocatorIN4Tins9PDUOptionIhNS2_4IPv6EEEEELi1ELb1EE5__getB7v160006Ev, symObjAddr: 0x2708, symBinAddr: 0x1000042A8, symSize: 0x14 }
  - { offsetInCU: 0x1D8FA, offset: 0x1D8FA, size: 0x8, addend: 0x0, symName: __ZNKSt3__16vectorIN4Tins9PDUOptionIhNS1_4IPv6EEENS_9allocatorIS4_EEE9__end_capB7v160006Ev, symObjAddr: 0x271C, symBinAddr: 0x1000042BC, symSize: 0x28 }
  - { offsetInCU: 0x1D920, offset: 0x1D920, size: 0x8, addend: 0x0, symName: __ZNKSt3__117__compressed_pairIPN4Tins9PDUOptionIhNS1_4IPv6EEENS_9allocatorIS4_EEE5firstB7v160006Ev, symObjAddr: 0x2744, symBinAddr: 0x1000042E4, symSize: 0x24 }
  - { offsetInCU: 0x1D946, offset: 0x1D946, size: 0x8, addend: 0x0, symName: __ZNKSt3__122__compressed_pair_elemIPN4Tins9PDUOptionIhNS1_4IPv6EEELi0ELb0EE5__getB7v160006Ev, symObjAddr: 0x2768, symBinAddr: 0x100004308, symSize: 0x14 }
  - { offsetInCU: 0x1D96C, offset: 0x1D96C, size: 0x8, addend: 0x0, symName: __ZNK4Tins11IPv6Address5beginEv, symObjAddr: 0x27B4, symBinAddr: 0x100004354, symSize: 0x14 }
  - { offsetInCU: 0x1D992, offset: 0x1D992, size: 0x8, addend: 0x0, symName: __ZNK4Tins11IPv6Address3endEv, symObjAddr: 0x27C8, symBinAddr: 0x100004368, symSize: 0x18 }
  - { offsetInCU: 0x1D9C2, offset: 0x1D9C2, size: 0x8, addend: 0x0, symName: __ZNKSt3__110__equal_toclB7v160006IhhEEbRKT_RKT0_, symObjAddr: 0x2888, symBinAddr: 0x100004428, symSize: 0x34 }
  - { offsetInCU: 0x1DA16, offset: 0x1DA16, size: 0x8, addend: 0x0, symName: __ZN4Tins6Endian26conversion_dispatch_helperItE8dispatchEt, symObjAddr: 0x290C, symBinAddr: 0x1000044AC, symSize: 0x28 }
  - { offsetInCU: 0x1DA39, offset: 0x1DA39, size: 0x8, addend: 0x0, symName: __ZN4Tins6Endian26conversion_dispatch_helperIjE8dispatchEj, symObjAddr: 0x299C, symBinAddr: 0x10000453C, symSize: 0x24 }
  - { offsetInCU: 0x1DA5C, offset: 0x1DA5C, size: 0x8, addend: 0x0, symName: __ZN4Tins7SnifferD2Ev, symObjAddr: 0x29D8, symBinAddr: 0x100004578, symSize: 0x2C }
  - { offsetInCU: 0x1DA89, offset: 0x1DA89, size: 0x8, addend: 0x0, symName: __ZN4Tins20SnifferConfigurationD2Ev, symObjAddr: 0x2A04, symBinAddr: 0x1000045A4, symSize: 0x30 }
  - { offsetInCU: 0x1DAB6, offset: 0x1DAB6, size: 0x8, addend: 0x0, symName: __ZNSt3__112basic_stringIcNS_11char_traitsIcEENS_9allocatorIcEEEC2B7v160006Ev, symObjAddr: 0x2A34, symBinAddr: 0x1000045D4, symSize: 0x54 }
  - { offsetInCU: 0x1DAE6, offset: 0x1DAE6, size: 0x8, addend: 0x0, symName: __ZNSt3__117__compressed_pairINS_12basic_stringIcNS_11char_traitsIcEENS_9allocatorIcEEE5__repES5_EC1B7v160006INS_18__default_init_tagESA_EEOT_OT0_, symObjAddr: 0x2A88, symBinAddr: 0x100004628, symSize: 0x3C }
  - { offsetInCU: 0x1DB3E, offset: 0x1DB3E, size: 0x8, addend: 0x0, symName: __ZNSt3__112basic_stringIcNS_11char_traitsIcEENS_9allocatorIcEEE14__default_initB7v160006Ev, symObjAddr: 0x2AD4, symBinAddr: 0x100004674, symSize: 0x40 }
  - { offsetInCU: 0x1DB64, offset: 0x1DB64, size: 0x8, addend: 0x0, symName: __ZNSt3__117__compressed_pairINS_12basic_stringIcNS_11char_traitsIcEENS_9allocatorIcEEE5__repES5_EC2B7v160006INS_18__default_init_tagESA_EEOT_OT0_, symObjAddr: 0x2B14, symBinAddr: 0x1000046B4, symSize: 0x3C }
  - { offsetInCU: 0x1DBBC, offset: 0x1DBBC, size: 0x8, addend: 0x0, symName: __ZNSt3__122__compressed_pair_elemINS_12basic_stringIcNS_11char_traitsIcEENS_9allocatorIcEEE5__repELi0ELb0EEC2B7v160006ENS_18__default_init_tagE, symObjAddr: 0x2B50, symBinAddr: 0x1000046F0, symSize: 0x14 }
  - { offsetInCU: 0x1DBF0, offset: 0x1DBF0, size: 0x8, addend: 0x0, symName: __ZNSt3__122__compressed_pair_elemINS_9allocatorIcEELi1ELb1EEC2B7v160006ENS_18__default_init_tagE, symObjAddr: 0x2B64, symBinAddr: 0x100004704, symSize: 0x2C }
  - { offsetInCU: 0x1DC24, offset: 0x1DC24, size: 0x8, addend: 0x0, symName: __ZNSt3__19allocatorIcEC2B7v160006Ev, symObjAddr: 0x2B90, symBinAddr: 0x100004730, symSize: 0x2C }
  - { offsetInCU: 0x1DC4E, offset: 0x1DC4E, size: 0x8, addend: 0x0, symName: __ZNSt3__116__non_trivial_ifILb1ENS_9allocatorIcEEEC2B7v160006Ev, symObjAddr: 0x2BBC, symBinAddr: 0x10000475C, symSize: 0x14 }
  - { offsetInCU: 0x1DC78, offset: 0x1DC78, size: 0x8, addend: 0x0, symName: __ZNSt3__117__compressed_pairINS_12basic_stringIcNS_11char_traitsIcEENS_9allocatorIcEEE5__repES5_E5firstB7v160006Ev, symObjAddr: 0x2BD0, symBinAddr: 0x100004770, symSize: 0x24 }
  - { offsetInCU: 0x1DC9E, offset: 0x1DC9E, size: 0x8, addend: 0x0, symName: __ZNSt3__122__compressed_pair_elemINS_12basic_stringIcNS_11char_traitsIcEENS_9allocatorIcEEE5__repELi0ELb0EE5__getB7v160006Ev, symObjAddr: 0x2BF4, symBinAddr: 0x100004794, symSize: 0x14 }
  - { offsetInCU: 0x1DCC4, offset: 0x1DCC4, size: 0x8, addend: 0x0, symName: __ZNSt3__112basic_stringIcNS_11char_traitsIcEENS_9allocatorIcEEEC2B7v160006IDnEEPKc, symObjAddr: 0x2C08, symBinAddr: 0x1000047A8, symSize: 0x60 }
  - { offsetInCU: 0x1DD02, offset: 0x1DD02, size: 0x8, addend: 0x0, symName: __ZNSt3__111char_traitsIcE6lengthEPKc, symObjAddr: 0x2C68, symBinAddr: 0x100004808, symSize: 0x34 }
  - { offsetInCU: 0x1DD25, offset: 0x1DD25, size: 0x8, addend: 0x0, symName: __ZN4Tins10small_uintILm1EEC2Eh, symObjAddr: 0x2CC0, symBinAddr: 0x100004860, symSize: 0x74 }
  - { offsetInCU: 0x1DD80, offset: 0x1DD80, size: 0x8, addend: 0x0, symName: __ZN4Tins15value_too_largeC1Ev, symObjAddr: 0x2D34, symBinAddr: 0x1000048D4, symSize: 0x2C }
  - { offsetInCU: 0x1DDAC, offset: 0x1DDAC, size: 0x8, addend: 0x0, symName: __ZN4Tins15value_too_largeD1Ev, symObjAddr: 0x2D60, symBinAddr: 0x100004900, symSize: 0x2C }
  - { offsetInCU: 0x1DDD8, offset: 0x1DDD8, size: 0x8, addend: 0x0, symName: __ZN4Tins15value_too_largeC2Ev, symObjAddr: 0x2D8C, symBinAddr: 0x10000492C, symSize: 0x44 }
  - { offsetInCU: 0x1DE04, offset: 0x1DE04, size: 0x8, addend: 0x0, symName: __ZNSt9exceptionC2B7v160006Ev, symObjAddr: 0x2DD0, symBinAddr: 0x100004970, symSize: 0x24 }
  - { offsetInCU: 0x1DE2E, offset: 0x1DE2E, size: 0x8, addend: 0x0, symName: __ZN4Tins15value_too_largeD0Ev, symObjAddr: 0x2DF4, symBinAddr: 0x100004994, symSize: 0x30 }
  - { offsetInCU: 0x1DE5A, offset: 0x1DE5A, size: 0x8, addend: 0x0, symName: __ZNK4Tins15value_too_large4whatEv, symObjAddr: 0x2E24, symBinAddr: 0x1000049C4, symSize: 0x18 }
  - { offsetInCU: 0x1DE80, offset: 0x1DE80, size: 0x8, addend: 0x0, symName: __ZN4Tins15value_too_largeD2Ev, symObjAddr: 0x2E3C, symBinAddr: 0x1000049DC, symSize: 0x2C }
  - { offsetInCU: 0x1DEAC, offset: 0x1DEAC, size: 0x8, addend: 0x0, symName: __ZNSt3__112basic_stringIcNS_11char_traitsIcEENS_9allocatorIcEEE13__move_assignB7v160006ERS5_NS_17integral_constantIbLb1EEE, symObjAddr: 0x2E68, symBinAddr: 0x100004A08, symSize: 0xC8 }
  - { offsetInCU: 0x1DEEE, offset: 0x1DEEE, size: 0x8, addend: 0x0, symName: __ZNKSt3__112basic_stringIcNS_11char_traitsIcEENS_9allocatorIcEEE9__is_longB7v160006Ev, symObjAddr: 0x2F30, symBinAddr: 0x100004AD0, symSize: 0x38 }
  - { offsetInCU: 0x1DF14, offset: 0x1DF14, size: 0x8, addend: 0x0, symName: __ZNSt3__116allocator_traitsINS_9allocatorIcEEE10deallocateB7v160006ERS2_Pcm, symObjAddr: 0x2F68, symBinAddr: 0x100004B08, symSize: 0x34 }
  - { offsetInCU: 0x1DF56, offset: 0x1DF56, size: 0x8, addend: 0x0, symName: __ZNSt3__112basic_stringIcNS_11char_traitsIcEENS_9allocatorIcEEE7__allocB7v160006Ev, symObjAddr: 0x2F9C, symBinAddr: 0x100004B3C, symSize: 0x24 }
  - { offsetInCU: 0x1DF7C, offset: 0x1DF7C, size: 0x8, addend: 0x0, symName: __ZNSt3__112basic_stringIcNS_11char_traitsIcEENS_9allocatorIcEEE18__get_long_pointerB7v160006Ev, symObjAddr: 0x2FC0, symBinAddr: 0x100004B60, symSize: 0x28 }
  - { offsetInCU: 0x1DFA2, offset: 0x1DFA2, size: 0x8, addend: 0x0, symName: __ZNKSt3__112basic_stringIcNS_11char_traitsIcEENS_9allocatorIcEEE14__get_long_capB7v160006Ev, symObjAddr: 0x2FE8, symBinAddr: 0x100004B88, symSize: 0x30 }
  - { offsetInCU: 0x1DFC8, offset: 0x1DFC8, size: 0x8, addend: 0x0, symName: __ZNSt3__112basic_stringIcNS_11char_traitsIcEENS_9allocatorIcEEE19__move_assign_allocB7v160006ERS5_, symObjAddr: 0x3018, symBinAddr: 0x100004BB8, symSize: 0x2C }
  - { offsetInCU: 0x1DFFD, offset: 0x1DFFD, size: 0x8, addend: 0x0, symName: __ZNSt3__112basic_stringIcNS_11char_traitsIcEENS_9allocatorIcEEE16__set_short_sizeB7v160006Em, symObjAddr: 0x3044, symBinAddr: 0x100004BE4, symSize: 0x78 }
  - { offsetInCU: 0x1E032, offset: 0x1E032, size: 0x8, addend: 0x0, symName: __ZNSt3__111char_traitsIcE6assignERcRKc, symObjAddr: 0x30BC, symBinAddr: 0x100004C5C, symSize: 0x24 }
  - { offsetInCU: 0x1E063, offset: 0x1E063, size: 0x8, addend: 0x0, symName: __ZNSt3__112basic_stringIcNS_11char_traitsIcEENS_9allocatorIcEEE19__get_short_pointerB7v160006Ev, symObjAddr: 0x30E0, symBinAddr: 0x100004C80, symSize: 0x28 }
  - { offsetInCU: 0x1E089, offset: 0x1E089, size: 0x8, addend: 0x0, symName: __ZNKSt3__117__compressed_pairINS_12basic_stringIcNS_11char_traitsIcEENS_9allocatorIcEEE5__repES5_E5firstB7v160006Ev, symObjAddr: 0x3108, symBinAddr: 0x100004CA8, symSize: 0x24 }
  - { offsetInCU: 0x1E0AF, offset: 0x1E0AF, size: 0x8, addend: 0x0, symName: __ZNKSt3__122__compressed_pair_elemINS_12basic_stringIcNS_11char_traitsIcEENS_9allocatorIcEEE5__repELi0ELb0EE5__getB7v160006Ev, symObjAddr: 0x312C, symBinAddr: 0x100004CCC, symSize: 0x14 }
  - { offsetInCU: 0x1E0D5, offset: 0x1E0D5, size: 0x8, addend: 0x0, symName: __ZNSt3__19allocatorIcE10deallocateB7v160006EPcm, symObjAddr: 0x3140, symBinAddr: 0x100004CE0, symSize: 0x40 }
  - { offsetInCU: 0x1E117, offset: 0x1E117, size: 0x8, addend: 0x0, symName: __ZNSt3__117__compressed_pairINS_12basic_stringIcNS_11char_traitsIcEENS_9allocatorIcEEE5__repES5_E6secondB7v160006Ev, symObjAddr: 0x3180, symBinAddr: 0x100004D20, symSize: 0x24 }
  - { offsetInCU: 0x1E13D, offset: 0x1E13D, size: 0x8, addend: 0x0, symName: __ZNSt3__122__compressed_pair_elemINS_9allocatorIcEELi1ELb1EE5__getB7v160006Ev, symObjAddr: 0x31A4, symBinAddr: 0x100004D44, symSize: 0x14 }
  - { offsetInCU: 0x1E163, offset: 0x1E163, size: 0x8, addend: 0x0, symName: __ZNSt3__112basic_stringIcNS_11char_traitsIcEENS_9allocatorIcEEE19__move_assign_allocB7v160006ERS5_NS_17integral_constantIbLb1EEE, symObjAddr: 0x31B8, symBinAddr: 0x100004D58, symSize: 0x38 }
  - { offsetInCU: 0x1E1A3, offset: 0x1E1A3, size: 0x8, addend: 0x0, symName: __ZNSt3__114pointer_traitsIPcE10pointer_toB7v160006ERc, symObjAddr: 0x31F0, symBinAddr: 0x100004D90, symSize: 0x14 }
  - { offsetInCU: 0x1E1C6, offset: 0x1E1C6, size: 0x8, addend: 0x0, symName: __ZNSt3__19basic_iosIcNS_11char_traitsIcEEEC2B7v160006Ev, symObjAddr: 0x3204, symBinAddr: 0x100004DA4, symSize: 0x44 }
  - { offsetInCU: 0x1E1F0, offset: 0x1E1F0, size: 0x8, addend: 0x0, symName: __ZNSt3__113basic_ostreamIcNS_11char_traitsIcEEEC2B7v160006EPNS_15basic_streambufIcS2_EE, symObjAddr: 0x3248, symBinAddr: 0x100004DE8, symSize: 0x60 }
  - { offsetInCU: 0x1E235, offset: 0x1E235, size: 0x8, addend: 0x0, symName: __ZNSt3__18ios_baseC2B7v160006Ev, symObjAddr: 0x32A8, symBinAddr: 0x100004E48, symSize: 0x24 }
  - { offsetInCU: 0x1E25F, offset: 0x1E25F, size: 0x8, addend: 0x0, symName: __ZNSt3__19basic_iosIcNS_11char_traitsIcEEE4initB7v160006EPNS_15basic_streambufIcS2_EE, symObjAddr: 0x32CC, symBinAddr: 0x100004E6C, symSize: 0x44 }
  - { offsetInCU: 0x1E296, offset: 0x1E296, size: 0x8, addend: 0x0, symName: __ZNSt3__111char_traitsIcE3eofEv, symObjAddr: 0x3310, symBinAddr: 0x100004EB0, symSize: 0x8 }
  - { offsetInCU: 0x1E2C8, offset: 0x1E2C8, size: 0x8, addend: 0x0, symName: __ZNKSt3__113basic_ostreamIcNS_11char_traitsIcEEE6sentrycvbB7v160006Ev, symObjAddr: 0x3504, symBinAddr: 0x1000050A4, symSize: 0x1C }
  - { offsetInCU: 0x1E2EE, offset: 0x1E2EE, size: 0x8, addend: 0x0, symName: __ZNSt3__119ostreambuf_iteratorIcNS_11char_traitsIcEEEC1B7v160006ERNS_13basic_ostreamIcS2_EE, symObjAddr: 0x3760, symBinAddr: 0x100005300, symSize: 0x34 }
  - { offsetInCU: 0x1E326, offset: 0x1E326, size: 0x8, addend: 0x0, symName: __ZNKSt3__18ios_base5flagsB7v160006Ev, symObjAddr: 0x3794, symBinAddr: 0x100005334, symSize: 0x18 }
  - { offsetInCU: 0x1E34E, offset: 0x1E34E, size: 0x8, addend: 0x0, symName: __ZNKSt3__19basic_iosIcNS_11char_traitsIcEEE4fillB7v160006Ev, symObjAddr: 0x37AC, symBinAddr: 0x10000534C, symSize: 0x64 }
  - { offsetInCU: 0x1E376, offset: 0x1E376, size: 0x8, addend: 0x0, symName: __ZNKSt3__119ostreambuf_iteratorIcNS_11char_traitsIcEEE6failedB7v160006Ev, symObjAddr: 0x3810, symBinAddr: 0x1000053B0, symSize: 0x24 }
  - { offsetInCU: 0x1E39C, offset: 0x1E39C, size: 0x8, addend: 0x0, symName: __ZNSt3__19basic_iosIcNS_11char_traitsIcEEE8setstateB7v160006Ej, symObjAddr: 0x3834, symBinAddr: 0x1000053D4, symSize: 0x2C }
  - { offsetInCU: 0x1E3D1, offset: 0x1E3D1, size: 0x8, addend: 0x0, symName: __ZNKSt3__18ios_base5widthB7v160006Ev, symObjAddr: 0x3860, symBinAddr: 0x100005400, symSize: 0x18 }
  - { offsetInCU: 0x1E3F9, offset: 0x1E3F9, size: 0x8, addend: 0x0, symName: __ZNSt3__115basic_streambufIcNS_11char_traitsIcEEE5sputnB7v160006EPKcl, symObjAddr: 0x3878, symBinAddr: 0x100005418, symSize: 0x3C }
  - { offsetInCU: 0x1E43B, offset: 0x1E43B, size: 0x8, addend: 0x0, symName: __ZNSt3__112basic_stringIcNS_11char_traitsIcEENS_9allocatorIcEEEC1B7v160006Emc, symObjAddr: 0x38B4, symBinAddr: 0x100005454, symSize: 0x3C }
  - { offsetInCU: 0x1E483, offset: 0x1E483, size: 0x8, addend: 0x0, symName: __ZNKSt3__112basic_stringIcNS_11char_traitsIcEENS_9allocatorIcEEE4dataB7v160006Ev, symObjAddr: 0x38F0, symBinAddr: 0x100005490, symSize: 0x28 }
  - { offsetInCU: 0x1E4A9, offset: 0x1E4A9, size: 0x8, addend: 0x0, symName: __ZNSt3__18ios_base5widthB7v160006El, symObjAddr: 0x3918, symBinAddr: 0x1000054B8, symSize: 0x2C }
  - { offsetInCU: 0x1E4EF, offset: 0x1E4EF, size: 0x8, addend: 0x0, symName: __ZNSt3__112basic_stringIcNS_11char_traitsIcEENS_9allocatorIcEEEC2B7v160006Emc, symObjAddr: 0x3944, symBinAddr: 0x1000054E4, symSize: 0x54 }
  - { offsetInCU: 0x1E537, offset: 0x1E537, size: 0x8, addend: 0x0, symName: __ZNKSt3__112basic_stringIcNS_11char_traitsIcEENS_9allocatorIcEEE13__get_pointerB7v160006Ev, symObjAddr: 0x39AC, symBinAddr: 0x10000554C, symSize: 0x54 }
  - { offsetInCU: 0x1E55D, offset: 0x1E55D, size: 0x8, addend: 0x0, symName: __ZNKSt3__112basic_stringIcNS_11char_traitsIcEENS_9allocatorIcEEE18__get_long_pointerB7v160006Ev, symObjAddr: 0x3A00, symBinAddr: 0x1000055A0, symSize: 0x28 }
  - { offsetInCU: 0x1E583, offset: 0x1E583, size: 0x8, addend: 0x0, symName: __ZNKSt3__112basic_stringIcNS_11char_traitsIcEENS_9allocatorIcEEE19__get_short_pointerB7v160006Ev, symObjAddr: 0x3A28, symBinAddr: 0x1000055C8, symSize: 0x28 }
  - { offsetInCU: 0x1E5A9, offset: 0x1E5A9, size: 0x8, addend: 0x0, symName: __ZNSt3__114pointer_traitsIPKcE10pointer_toB7v160006ERS1_, symObjAddr: 0x3A50, symBinAddr: 0x1000055F0, symSize: 0x14 }
  - { offsetInCU: 0x1E5CC, offset: 0x1E5CC, size: 0x8, addend: 0x0, symName: __ZNSt3__119ostreambuf_iteratorIcNS_11char_traitsIcEEEC2B7v160006ERNS_13basic_ostreamIcS2_EE, symObjAddr: 0x3A64, symBinAddr: 0x100005604, symSize: 0x54 }
  - { offsetInCU: 0x1E604, offset: 0x1E604, size: 0x8, addend: 0x0, symName: __ZNKSt3__19basic_iosIcNS_11char_traitsIcEEE5rdbufB7v160006Ev, symObjAddr: 0x3AB8, symBinAddr: 0x100005658, symSize: 0x24 }
  - { offsetInCU: 0x1E62C, offset: 0x1E62C, size: 0x8, addend: 0x0, symName: __ZNKSt3__18ios_base5rdbufB7v160006Ev, symObjAddr: 0x3ADC, symBinAddr: 0x10000567C, symSize: 0x18 }
  - { offsetInCU: 0x1E652, offset: 0x1E652, size: 0x8, addend: 0x0, symName: __ZNSt3__111char_traitsIcE11eq_int_typeEii, symObjAddr: 0x3AF4, symBinAddr: 0x100005694, symSize: 0x28 }
  - { offsetInCU: 0x1E683, offset: 0x1E683, size: 0x8, addend: 0x0, symName: __ZNKSt3__19basic_iosIcNS_11char_traitsIcEEE5widenB7v160006Ec, symObjAddr: 0x3B1C, symBinAddr: 0x1000056BC, symSize: 0x84 }
  - { offsetInCU: 0x1E6EC, offset: 0x1E6EC, size: 0x8, addend: 0x0, symName: __ZNKSt3__15ctypeIcE5widenB7v160006Ec, symObjAddr: 0x3BCC, symBinAddr: 0x10000576C, symSize: 0x38 }
  - { offsetInCU: 0x1E721, offset: 0x1E721, size: 0x8, addend: 0x0, symName: __ZNSt3__18ios_base8setstateB7v160006Ej, symObjAddr: 0x3C04, symBinAddr: 0x1000057A4, symSize: 0x34 }
  - { offsetInCU: 0x1E758, offset: 0x1E758, size: 0x8, addend: 0x0, symName: __ZN4Tins9HWAddressILm6EEC2ERKNSt3__112basic_stringIcNS2_11char_traitsIcEENS2_9allocatorIcEEEE, symObjAddr: 0x3C38, symBinAddr: 0x1000057D8, symSize: 0x38 }
  - { offsetInCU: 0x1E796, offset: 0x1E796, size: 0x8, addend: 0x0, symName: __ZN4Tins10EthernetIIC1EOS0_, symObjAddr: 0x3CEC, symBinAddr: 0x10000588C, symSize: 0x34 }
  - { offsetInCU: 0x1E7CB, offset: 0x1E7CB, size: 0x8, addend: 0x0, symName: __ZNK4Tins3PDU9inner_pduEv, symObjAddr: 0x3D20, symBinAddr: 0x1000058C0, symSize: 0x18 }
  - { offsetInCU: 0x1E7F1, offset: 0x1E7F1, size: 0x8, addend: 0x0, symName: __ZN4Tins10EthernetIIC2EOS0_, symObjAddr: 0x3D38, symBinAddr: 0x1000058D8, symSize: 0x60 }
  - { offsetInCU: 0x1E826, offset: 0x1E826, size: 0x8, addend: 0x0, symName: __ZN4Tins3PDUC2EOS0_, symObjAddr: 0x3D98, symBinAddr: 0x100005938, symSize: 0x8C }
  - { offsetInCU: 0x1E85E, offset: 0x1E85E, size: 0x8, addend: 0x0, symName: __ZN4Tins3PDU8find_pduINS_4IPv6EEEPT_NS0_7PDUTypeE, symObjAddr: 0x3E60, symBinAddr: 0x100005A00, symSize: 0x84 }
  - { offsetInCU: 0x1E8E7, offset: 0x1E8E7, size: 0x8, addend: 0x0, symName: __ZN4Tins13pdu_not_foundC1Ev, symObjAddr: 0x3EE4, symBinAddr: 0x100005A84, symSize: 0x2C }
  - { offsetInCU: 0x1E911, offset: 0x1E911, size: 0x8, addend: 0x0, symName: __ZN4Tins13pdu_not_foundD1Ev, symObjAddr: 0x3F10, symBinAddr: 0x100005AB0, symSize: 0x2C }
  - { offsetInCU: 0x1E93D, offset: 0x1E93D, size: 0x8, addend: 0x0, symName: __ZN4Tins13pdu_not_foundC2Ev, symObjAddr: 0x3F3C, symBinAddr: 0x100005ADC, symSize: 0x4C }
  - { offsetInCU: 0x1E967, offset: 0x1E967, size: 0x8, addend: 0x0, symName: __ZN4Tins14exception_baseC2EPKc, symObjAddr: 0x3F88, symBinAddr: 0x100005B28, symSize: 0x4C }
  - { offsetInCU: 0x1E99F, offset: 0x1E99F, size: 0x8, addend: 0x0, symName: __ZN4Tins13pdu_not_foundD0Ev, symObjAddr: 0x3FD4, symBinAddr: 0x100005B74, symSize: 0x30 }
  - { offsetInCU: 0x1E9CB, offset: 0x1E9CB, size: 0x8, addend: 0x0, symName: __ZN4Tins14exception_baseD1Ev, symObjAddr: 0x4004, symBinAddr: 0x100005BA4, symSize: 0x2C }
  - { offsetInCU: 0x1E9F7, offset: 0x1E9F7, size: 0x8, addend: 0x0, symName: __ZN4Tins14exception_baseD0Ev, symObjAddr: 0x4030, symBinAddr: 0x100005BD0, symSize: 0x30 }
  - { offsetInCU: 0x1EA23, offset: 0x1EA23, size: 0x8, addend: 0x0, symName: __ZN4Tins14exception_baseD2Ev, symObjAddr: 0x4060, symBinAddr: 0x100005C00, symSize: 0x2C }
  - { offsetInCU: 0x1EA4F, offset: 0x1EA4F, size: 0x8, addend: 0x0, symName: __ZN4Tins13pdu_not_foundD2Ev, symObjAddr: 0x408C, symBinAddr: 0x100005C2C, symSize: 0x2C }
  - { offsetInCU: 0x1EA7B, offset: 0x1EA7B, size: 0x8, addend: 0x0, symName: __ZN4Tins3PDU8find_pduINS_3TCPEEEPT_NS0_7PDUTypeE, symObjAddr: 0x40B8, symBinAddr: 0x100005C58, symSize: 0x84 }
  - { offsetInCU: 0x1EAC8, offset: 0x1EAC8, size: 0x8, addend: 0x0, symName: __ZNK4Tins15SnifferIteratorneERKS0_, symObjAddr: 0x413C, symBinAddr: 0x100005CDC, symSize: 0x34 }
  - { offsetInCU: 0x1EAFD, offset: 0x1EAFD, size: 0x8, addend: 0x0, symName: __ZN4Tins15SnifferIteratorD1Ev, symObjAddr: 0x4170, symBinAddr: 0x100005D10, symSize: 0x2C }
  - { offsetInCU: 0x1EB2A, offset: 0x1EB2A, size: 0x8, addend: 0x0, symName: __ZN4Tins15SnifferIteratordeEv, symObjAddr: 0x41E0, symBinAddr: 0x100005D80, symSize: 0x18 }
  - { offsetInCU: 0x1EB50, offset: 0x1EB50, size: 0x8, addend: 0x0, symName: __ZN4Tins15SnifferIteratorppEv, symObjAddr: 0x41F8, symBinAddr: 0x100005D98, symSize: 0x2C }
  - { offsetInCU: 0x1EB76, offset: 0x1EB76, size: 0x8, addend: 0x0, symName: __ZNK4Tins15SnifferIteratoreqERKS0_, symObjAddr: 0x4224, symBinAddr: 0x100005DC4, symSize: 0x30 }
  - { offsetInCU: 0x1EBAB, offset: 0x1EBAB, size: 0x8, addend: 0x0, symName: __ZN4Tins15SnifferIteratorD2Ev, symObjAddr: 0x4254, symBinAddr: 0x100005DF4, symSize: 0x30 }
  - { offsetInCU: 0x1EBD8, offset: 0x1EBD8, size: 0x8, addend: 0x0, symName: __ZN4Tins6PacketD1Ev, symObjAddr: 0x4284, symBinAddr: 0x100005E24, symSize: 0x2C }
  - { offsetInCU: 0x1EC02, offset: 0x1EC02, size: 0x8, addend: 0x0, symName: __ZN4Tins6PacketD2Ev, symObjAddr: 0x42B0, symBinAddr: 0x100005E50, symSize: 0x58 }
  - { offsetInCU: 0x1EC2C, offset: 0x1EC2C, size: 0x8, addend: 0x0, symName: __ZN4Tins6Packet3pduEv, symObjAddr: 0x4308, symBinAddr: 0x100005EA8, symSize: 0x18 }
  - { offsetInCU: 0x1EC52, offset: 0x1EC52, size: 0x8, addend: 0x0, symName: __ZN4Tins15SnifferIterator7advanceEv, symObjAddr: 0x4320, symBinAddr: 0x100005EC0, symSize: 0x7C }
  - { offsetInCU: 0x1EC78, offset: 0x1EC78, size: 0x8, addend: 0x0, symName: __ZN4Tins6PacketC1ERKNS_13PacketWrapperIPNS_3PDUENS_9TimestampEEE, symObjAddr: 0x439C, symBinAddr: 0x100005F3C, symSize: 0x34 }
  - { offsetInCU: 0x1ECB0, offset: 0x1ECB0, size: 0x8, addend: 0x0, symName: __ZN4Tins6PacketaSEOS0_, symObjAddr: 0x43D0, symBinAddr: 0x100005F70, symSize: 0x8C }
  - { offsetInCU: 0x1ECF8, offset: 0x1ECF8, size: 0x8, addend: 0x0, symName: __ZNK4Tins6PacketcvbEv, symObjAddr: 0x445C, symBinAddr: 0x100005FFC, symSize: 0x34 }
  - { offsetInCU: 0x1ED1E, offset: 0x1ED1E, size: 0x8, addend: 0x0, symName: __ZN4Tins6PacketC2ERKNS_13PacketWrapperIPNS_3PDUENS_9TimestampEEE, symObjAddr: 0x4490, symBinAddr: 0x100006030, symSize: 0x50 }
  - { offsetInCU: 0x1ED56, offset: 0x1ED56, size: 0x8, addend: 0x0, symName: __ZNK4Tins13PacketWrapperIPNS_3PDUENS_9TimestampEE3pduEv, symObjAddr: 0x44E0, symBinAddr: 0x100006080, symSize: 0x18 }
  - { offsetInCU: 0x1ED7C, offset: 0x1ED7C, size: 0x8, addend: 0x0, symName: __ZNK4Tins13PacketWrapperIPNS_3PDUENS_9TimestampEE9timestampEv, symObjAddr: 0x44F8, symBinAddr: 0x100006098, symSize: 0x18 }
  - { offsetInCU: 0x1EDA2, offset: 0x1EDA2, size: 0x8, addend: 0x0, symName: __ZNK4Tins6Packet9timestampEv, symObjAddr: 0x4510, symBinAddr: 0x1000060B0, symSize: 0x18 }
  - { offsetInCU: 0x1EDC8, offset: 0x1EDC8, size: 0x8, addend: 0x0, symName: __ZNSt3__112basic_stringIcNS_11char_traitsIcEENS_9allocatorIcEEEC1B7v160006EOS5_, symObjAddr: 0x4528, symBinAddr: 0x1000060C8, symSize: 0x34 }
  - { offsetInCU: 0x1EE01, offset: 0x1EE01, size: 0x8, addend: 0x0, symName: __ZNSt3__112basic_stringIcNS_11char_traitsIcEENS_9allocatorIcEEEC2B7v160006EOS5_, symObjAddr: 0x455C, symBinAddr: 0x1000060FC, symSize: 0x80 }
  - { offsetInCU: 0x1EE3A, offset: 0x1EE3A, size: 0x8, addend: 0x0, symName: __ZNKSt3__112basic_stringIcNS_11char_traitsIcEENS_9allocatorIcEEE4sizeB7v160006Ev, symObjAddr: 0x45F0, symBinAddr: 0x100006190, symSize: 0x54 }
  - { offsetInCU: 0x1EE60, offset: 0x1EE60, size: 0x8, addend: 0x0, symName: __ZNKSt3__112basic_stringIcNS_11char_traitsIcEENS_9allocatorIcEEE15__get_long_sizeB7v160006Ev, symObjAddr: 0x4644, symBinAddr: 0x1000061E4, symSize: 0x28 }
  - { offsetInCU: 0x1EE86, offset: 0x1EE86, size: 0x8, addend: 0x0, symName: __ZNKSt3__112basic_stringIcNS_11char_traitsIcEENS_9allocatorIcEEE16__get_short_sizeB7v160006Ev, symObjAddr: 0x466C, symBinAddr: 0x10000620C, symSize: 0x34 }
  - { offsetInCU: 0x1EEAC, offset: 0x1EEAC, size: 0x8, addend: 0x0, symName: __ZNSt3__16threadC2IRFvvEJEvEEOT_DpOT0_, symObjAddr: 0x46A0, symBinAddr: 0x100006240, symSize: 0x148 }
  - { offsetInCU: 0x1EF27, offset: 0x1EF27, size: 0x8, addend: 0x0, symName: __ZNSt3__110unique_ptrINS_15__thread_structENS_14default_deleteIS1_EEEC1B7v160006ILb1EvEEPS1_, symObjAddr: 0x47E8, symBinAddr: 0x100006388, symSize: 0x34 }
  - { offsetInCU: 0x1EF6A, offset: 0x1EF6A, size: 0x8, addend: 0x0, symName: __ZNSt3__15tupleIJNS_10unique_ptrINS_15__thread_structENS_14default_deleteIS2_EEEEPFvvEEEC1B7v160006IJS5_RS6_ELi0EEEDpOT_, symObjAddr: 0x481C, symBinAddr: 0x1000063BC, symSize: 0x3C }
  - { offsetInCU: 0x1F05A, offset: 0x1F05A, size: 0x8, addend: 0x0, symName: __ZNSt3__110unique_ptrINS_5tupleIJNS0_INS_15__thread_structENS_14default_deleteIS2_EEEEPFvvEEEENS3_IS8_EEEC1B7v160006ILb1EvEEPS8_, symObjAddr: 0x4858, symBinAddr: 0x1000063F8, symSize: 0x34 }
  - { offsetInCU: 0x1F09D, offset: 0x1F09D, size: 0x8, addend: 0x0, symName: __ZNKSt3__110unique_ptrINS_5tupleIJNS0_INS_15__thread_structENS_14default_deleteIS2_EEEEPFvvEEEENS3_IS8_EEE3getB7v160006Ev, symObjAddr: 0x4954, symBinAddr: 0x1000064F4, symSize: 0x28 }
  - { offsetInCU: 0x1F0C3, offset: 0x1F0C3, size: 0x8, addend: 0x0, symName: __ZNSt3__110unique_ptrINS_5tupleIJNS0_INS_15__thread_structENS_14default_deleteIS2_EEEEPFvvEEEENS3_IS8_EEE7releaseB7v160006Ev, symObjAddr: 0x497C, symBinAddr: 0x10000651C, symSize: 0x44 }
  - { offsetInCU: 0x1F0F8, offset: 0x1F0F8, size: 0x8, addend: 0x0, symName: __ZNSt3__110unique_ptrINS_5tupleIJNS0_INS_15__thread_structENS_14default_deleteIS2_EEEEPFvvEEEENS3_IS8_EEED1B7v160006Ev, symObjAddr: 0x49C0, symBinAddr: 0x100006560, symSize: 0x2C }
  - { offsetInCU: 0x1F122, offset: 0x1F122, size: 0x8, addend: 0x0, symName: __ZNSt3__110unique_ptrINS_15__thread_structENS_14default_deleteIS1_EEED1B7v160006Ev, symObjAddr: 0x49EC, symBinAddr: 0x10000658C, symSize: 0x2C }
  - { offsetInCU: 0x1F14C, offset: 0x1F14C, size: 0x8, addend: 0x0, symName: __ZNSt3__110unique_ptrINS_15__thread_structENS_14default_deleteIS1_EEEC2B7v160006ILb1EvEEPS1_, symObjAddr: 0x4A18, symBinAddr: 0x1000065B8, symSize: 0x44 }
  - { offsetInCU: 0x1F195, offset: 0x1F195, size: 0x8, addend: 0x0, symName: __ZNSt3__117__compressed_pairIPNS_15__thread_structENS_14default_deleteIS1_EEEC1B7v160006IRS2_NS_16__value_init_tagEEEOT_OT0_, symObjAddr: 0x4A5C, symBinAddr: 0x1000065FC, symSize: 0x3C }
  - { offsetInCU: 0x1F1ED, offset: 0x1F1ED, size: 0x8, addend: 0x0, symName: __ZNSt3__117__compressed_pairIPNS_15__thread_structENS_14default_deleteIS1_EEEC2B7v160006IRS2_NS_16__value_init_tagEEEOT_OT0_, symObjAddr: 0x4A98, symBinAddr: 0x100006638, symSize: 0x40 }
  - { offsetInCU: 0x1F245, offset: 0x1F245, size: 0x8, addend: 0x0, symName: __ZNSt3__122__compressed_pair_elemIPNS_15__thread_structELi0ELb0EEC2B7v160006IRS2_vEEOT_, symObjAddr: 0x4AD8, symBinAddr: 0x100006678, symSize: 0x24 }
  - { offsetInCU: 0x1F287, offset: 0x1F287, size: 0x8, addend: 0x0, symName: __ZNSt3__122__compressed_pair_elemINS_14default_deleteINS_15__thread_structEEELi1ELb1EEC2B7v160006ENS_16__value_init_tagE, symObjAddr: 0x4AFC, symBinAddr: 0x10000669C, symSize: 0x14 }
  - { offsetInCU: 0x1F2BB, offset: 0x1F2BB, size: 0x8, addend: 0x0, symName: __ZNSt3__15tupleIJNS_10unique_ptrINS_15__thread_structENS_14default_deleteIS2_EEEEPFvvEEEC2B7v160006IJS5_RS6_ELi0EEEDpOT_, symObjAddr: 0x4B10, symBinAddr: 0x1000066B0, symSize: 0x3C }
  - { offsetInCU: 0x1F319, offset: 0x1F319, size: 0x8, addend: 0x0, symName: __ZNSt3__112__tuple_implINS_15__tuple_indicesIJLm0ELm1EEEEJNS_10unique_ptrINS_15__thread_structENS_14default_deleteIS4_EEEEPFvvEEEC1B7v160006IJLm0ELm1EEJS7_S9_EJEJEJS7_RS8_EEENS1_IJXspT_EEEENS_13__tuple_typesIJDpT0_EEENS1_IJXspT1_EEEENSE_IJDpT2_EEEDpOT3_, symObjAddr: 0x4B4C, symBinAddr: 0x1000066EC, symSize: 0x3C }
  - { offsetInCU: 0x1F3C9, offset: 0x1F3C9, size: 0x8, addend: 0x0, symName: __ZNSt3__112__tuple_implINS_15__tuple_indicesIJLm0ELm1EEEEJNS_10unique_ptrINS_15__thread_structENS_14default_deleteIS4_EEEEPFvvEEEC2B7v160006IJLm0ELm1EEJS7_S9_EJEJEJS7_RS8_EEENS1_IJXspT_EEEENS_13__tuple_typesIJDpT0_EEENS1_IJXspT1_EEEENSE_IJDpT2_EEEDpOT3_, symObjAddr: 0x4B88, symBinAddr: 0x100006728, symSize: 0x48 }
  - { offsetInCU: 0x1F479, offset: 0x1F479, size: 0x8, addend: 0x0, symName: __ZNSt3__112__tuple_leafILm0ENS_10unique_ptrINS_15__thread_structENS_14default_deleteIS2_EEEELb0EEC2B7v160006IS5_vEEOT_, symObjAddr: 0x4BD0, symBinAddr: 0x100006770, symSize: 0x34 }
  - { offsetInCU: 0x1F4BC, offset: 0x1F4BC, size: 0x8, addend: 0x0, symName: __ZNSt3__112__tuple_leafILm1EPFvvELb0EEC2B7v160006IRS1_vEEOT_, symObjAddr: 0x4C04, symBinAddr: 0x1000067A4, symSize: 0x20 }
  - { offsetInCU: 0x1F4FF, offset: 0x1F4FF, size: 0x8, addend: 0x0, symName: __ZNSt3__110unique_ptrINS_15__thread_structENS_14default_deleteIS1_EEEC1B7v160006EOS4_, symObjAddr: 0x4C24, symBinAddr: 0x1000067C4, symSize: 0x34 }
  - { offsetInCU: 0x1F537, offset: 0x1F537, size: 0x8, addend: 0x0, symName: __ZNSt3__110unique_ptrINS_15__thread_structENS_14default_deleteIS1_EEEC2B7v160006EOS4_, symObjAddr: 0x4C58, symBinAddr: 0x1000067F8, symSize: 0x60 }
  - { offsetInCU: 0x1F56F, offset: 0x1F56F, size: 0x8, addend: 0x0, symName: __ZNSt3__110unique_ptrINS_15__thread_structENS_14default_deleteIS1_EEE7releaseB7v160006Ev, symObjAddr: 0x4CB8, symBinAddr: 0x100006858, symSize: 0x44 }
  - { offsetInCU: 0x1F5A4, offset: 0x1F5A4, size: 0x8, addend: 0x0, symName: __ZNSt3__110unique_ptrINS_15__thread_structENS_14default_deleteIS1_EEE11get_deleterB7v160006Ev, symObjAddr: 0x4CFC, symBinAddr: 0x10000689C, symSize: 0x24 }
  - { offsetInCU: 0x1F5D6, offset: 0x1F5D6, size: 0x8, addend: 0x0, symName: __ZNSt3__117__compressed_pairIPNS_15__thread_structENS_14default_deleteIS1_EEEC1B7v160006IS2_S4_EEOT_OT0_, symObjAddr: 0x4D20, symBinAddr: 0x1000068C0, symSize: 0x3C }
  - { offsetInCU: 0x1F62E, offset: 0x1F62E, size: 0x8, addend: 0x0, symName: __ZNSt3__117__compressed_pairIPNS_15__thread_structENS_14default_deleteIS1_EEE5firstB7v160006Ev, symObjAddr: 0x4D5C, symBinAddr: 0x1000068FC, symSize: 0x24 }
  - { offsetInCU: 0x1F654, offset: 0x1F654, size: 0x8, addend: 0x0, symName: __ZNSt3__122__compressed_pair_elemIPNS_15__thread_structELi0ELb0EE5__getB7v160006Ev, symObjAddr: 0x4D80, symBinAddr: 0x100006920, symSize: 0x14 }
  - { offsetInCU: 0x1F67A, offset: 0x1F67A, size: 0x8, addend: 0x0, symName: __ZNSt3__117__compressed_pairIPNS_15__thread_structENS_14default_deleteIS1_EEE6secondB7v160006Ev, symObjAddr: 0x4D94, symBinAddr: 0x100006934, symSize: 0x24 }
  - { offsetInCU: 0x1F6A0, offset: 0x1F6A0, size: 0x8, addend: 0x0, symName: __ZNSt3__122__compressed_pair_elemINS_14default_deleteINS_15__thread_structEEELi1ELb1EE5__getB7v160006Ev, symObjAddr: 0x4DB8, symBinAddr: 0x100006958, symSize: 0x14 }
  - { offsetInCU: 0x1F6C6, offset: 0x1F6C6, size: 0x8, addend: 0x0, symName: __ZNSt3__117__compressed_pairIPNS_15__thread_structENS_14default_deleteIS1_EEEC2B7v160006IS2_S4_EEOT_OT0_, symObjAddr: 0x4DCC, symBinAddr: 0x10000696C, symSize: 0x44 }
  - { offsetInCU: 0x1F71E, offset: 0x1F71E, size: 0x8, addend: 0x0, symName: __ZNSt3__122__compressed_pair_elemIPNS_15__thread_structELi0ELb0EEC2B7v160006IS2_vEEOT_, symObjAddr: 0x4E10, symBinAddr: 0x1000069B0, symSize: 0x24 }
  - { offsetInCU: 0x1F760, offset: 0x1F760, size: 0x8, addend: 0x0, symName: __ZNSt3__122__compressed_pair_elemINS_14default_deleteINS_15__thread_structEEELi1ELb1EEC2B7v160006IS3_vEEOT_, symObjAddr: 0x4E34, symBinAddr: 0x1000069D4, symSize: 0x18 }
  - { offsetInCU: 0x1F7A2, offset: 0x1F7A2, size: 0x8, addend: 0x0, symName: __ZNSt3__110unique_ptrINS_5tupleIJNS0_INS_15__thread_structENS_14default_deleteIS2_EEEEPFvvEEEENS3_IS8_EEEC2B7v160006ILb1EvEEPS8_, symObjAddr: 0x4E4C, symBinAddr: 0x1000069EC, symSize: 0x44 }
  - { offsetInCU: 0x1F7E5, offset: 0x1F7E5, size: 0x8, addend: 0x0, symName: __ZNSt3__117__compressed_pairIPNS_5tupleIJNS_10unique_ptrINS_15__thread_structENS_14default_deleteIS3_EEEEPFvvEEEENS4_IS9_EEEC1B7v160006IRSA_NS_16__value_init_tagEEEOT_OT0_, symObjAddr: 0x4E90, symBinAddr: 0x100006A30, symSize: 0x3C }
  - { offsetInCU: 0x1F83D, offset: 0x1F83D, size: 0x8, addend: 0x0, symName: __ZNSt3__117__compressed_pairIPNS_5tupleIJNS_10unique_ptrINS_15__thread_structENS_14default_deleteIS3_EEEEPFvvEEEENS4_IS9_EEEC2B7v160006IRSA_NS_16__value_init_tagEEEOT_OT0_, symObjAddr: 0x4ECC, symBinAddr: 0x100006A6C, symSize: 0x40 }
  - { offsetInCU: 0x1F895, offset: 0x1F895, size: 0x8, addend: 0x0, symName: __ZNSt3__122__compressed_pair_elemIPNS_5tupleIJNS_10unique_ptrINS_15__thread_structENS_14default_deleteIS3_EEEEPFvvEEEELi0ELb0EEC2B7v160006IRSA_vEEOT_, symObjAddr: 0x4F0C, symBinAddr: 0x100006AAC, symSize: 0x24 }
  - { offsetInCU: 0x1F8D7, offset: 0x1F8D7, size: 0x8, addend: 0x0, symName: __ZNSt3__122__compressed_pair_elemINS_14default_deleteINS_5tupleIJNS_10unique_ptrINS_15__thread_structENS1_IS4_EEEEPFvvEEEEEELi1ELb1EEC2B7v160006ENS_16__value_init_tagE, symObjAddr: 0x4F30, symBinAddr: 0x100006AD0, symSize: 0x14 }
  - { offsetInCU: 0x1F93A, offset: 0x1F93A, size: 0x8, addend: 0x0, symName: __ZNSt3__121__thread_specific_ptrINS_15__thread_structEE11set_pointerEPS1_, symObjAddr: 0x4F44, symBinAddr: 0x100006AE4, symSize: 0x30 }
  - { offsetInCU: 0x1F96F, offset: 0x1F96F, size: 0x8, addend: 0x0, symName: __ZNSt3__112__tuple_leafILm0ENS_10unique_ptrINS_15__thread_structENS_14default_deleteIS2_EEEELb0EE3getB7v160006Ev, symObjAddr: 0x4FEC, symBinAddr: 0x100006B8C, symSize: 0x14 }
  - { offsetInCU: 0x1F995, offset: 0x1F995, size: 0x8, addend: 0x0, symName: __ZNSt3__112__tuple_leafILm1EPFvvELb0EE3getB7v160006Ev, symObjAddr: 0x5050, symBinAddr: 0x100006BF0, symSize: 0x14 }
  - { offsetInCU: 0x1F9BB, offset: 0x1F9BB, size: 0x8, addend: 0x0, symName: __ZNKSt3__117__compressed_pairIPNS_5tupleIJNS_10unique_ptrINS_15__thread_structENS_14default_deleteIS3_EEEEPFvvEEEENS4_IS9_EEE5firstB7v160006Ev, symObjAddr: 0x5064, symBinAddr: 0x100006C04, symSize: 0x24 }
  - { offsetInCU: 0x1F9E1, offset: 0x1F9E1, size: 0x8, addend: 0x0, symName: __ZNKSt3__122__compressed_pair_elemIPNS_5tupleIJNS_10unique_ptrINS_15__thread_structENS_14default_deleteIS3_EEEEPFvvEEEELi0ELb0EE5__getB7v160006Ev, symObjAddr: 0x5088, symBinAddr: 0x100006C28, symSize: 0x14 }
  - { offsetInCU: 0x1FA07, offset: 0x1FA07, size: 0x8, addend: 0x0, symName: __ZNSt3__117__compressed_pairIPNS_5tupleIJNS_10unique_ptrINS_15__thread_structENS_14default_deleteIS3_EEEEPFvvEEEENS4_IS9_EEE5firstB7v160006Ev, symObjAddr: 0x509C, symBinAddr: 0x100006C3C, symSize: 0x24 }
  - { offsetInCU: 0x1FA2D, offset: 0x1FA2D, size: 0x8, addend: 0x0, symName: __ZNSt3__122__compressed_pair_elemIPNS_5tupleIJNS_10unique_ptrINS_15__thread_structENS_14default_deleteIS3_EEEEPFvvEEEELi0ELb0EE5__getB7v160006Ev, symObjAddr: 0x50C0, symBinAddr: 0x100006C60, symSize: 0x14 }
  - { offsetInCU: 0x1FA53, offset: 0x1FA53, size: 0x8, addend: 0x0, symName: __ZNSt3__110unique_ptrINS_5tupleIJNS0_INS_15__thread_structENS_14default_deleteIS2_EEEEPFvvEEEENS3_IS8_EEED2B7v160006Ev, symObjAddr: 0x50D4, symBinAddr: 0x100006C74, symSize: 0x30 }
  - { offsetInCU: 0x1FA7D, offset: 0x1FA7D, size: 0x8, addend: 0x0, symName: __ZNSt3__110unique_ptrINS_5tupleIJNS0_INS_15__thread_structENS_14default_deleteIS2_EEEEPFvvEEEENS3_IS8_EEE5resetB7v160006EPS8_, symObjAddr: 0x5104, symBinAddr: 0x100006CA4, symSize: 0x78 }
  - { offsetInCU: 0x1FAC1, offset: 0x1FAC1, size: 0x8, addend: 0x0, symName: __ZNSt3__117__compressed_pairIPNS_5tupleIJNS_10unique_ptrINS_15__thread_structENS_14default_deleteIS3_EEEEPFvvEEEENS4_IS9_EEE6secondB7v160006Ev, symObjAddr: 0x517C, symBinAddr: 0x100006D1C, symSize: 0x24 }
  - { offsetInCU: 0x1FAE7, offset: 0x1FAE7, size: 0x8, addend: 0x0, symName: __ZNKSt3__114default_deleteINS_5tupleIJNS_10unique_ptrINS_15__thread_structENS0_IS3_EEEEPFvvEEEEEclB7v160006EPS8_, symObjAddr: 0x51A0, symBinAddr: 0x100006D40, symSize: 0x4C }
  - { offsetInCU: 0x1FB1B, offset: 0x1FB1B, size: 0x8, addend: 0x0, symName: __ZNSt3__122__compressed_pair_elemINS_14default_deleteINS_5tupleIJNS_10unique_ptrINS_15__thread_structENS1_IS4_EEEEPFvvEEEEEELi1ELb1EE5__getB7v160006Ev, symObjAddr: 0x51EC, symBinAddr: 0x100006D8C, symSize: 0x14 }
  - { offsetInCU: 0x1FB41, offset: 0x1FB41, size: 0x8, addend: 0x0, symName: __ZNSt3__15tupleIJNS_10unique_ptrINS_15__thread_structENS_14default_deleteIS2_EEEEPFvvEEED1Ev, symObjAddr: 0x5200, symBinAddr: 0x100006DA0, symSize: 0x2C }
  - { offsetInCU: 0x1FB6E, offset: 0x1FB6E, size: 0x8, addend: 0x0, symName: __ZNSt3__15tupleIJNS_10unique_ptrINS_15__thread_structENS_14default_deleteIS2_EEEEPFvvEEED2Ev, symObjAddr: 0x522C, symBinAddr: 0x100006DCC, symSize: 0x2C }
  - { offsetInCU: 0x1FB9B, offset: 0x1FB9B, size: 0x8, addend: 0x0, symName: __ZNSt3__112__tuple_implINS_15__tuple_indicesIJLm0ELm1EEEEJNS_10unique_ptrINS_15__thread_structENS_14default_deleteIS4_EEEEPFvvEEED1Ev, symObjAddr: 0x5258, symBinAddr: 0x100006DF8, symSize: 0x2C }
  - { offsetInCU: 0x1FBC8, offset: 0x1FBC8, size: 0x8, addend: 0x0, symName: __ZNSt3__112__tuple_implINS_15__tuple_indicesIJLm0ELm1EEEEJNS_10unique_ptrINS_15__thread_structENS_14default_deleteIS4_EEEEPFvvEEED2Ev, symObjAddr: 0x5284, symBinAddr: 0x100006E24, symSize: 0x2C }
  - { offsetInCU: 0x1FBF5, offset: 0x1FBF5, size: 0x8, addend: 0x0, symName: __ZNSt3__112__tuple_leafILm0ENS_10unique_ptrINS_15__thread_structENS_14default_deleteIS2_EEEELb0EED2Ev, symObjAddr: 0x52B0, symBinAddr: 0x100006E50, symSize: 0x2C }
  - { offsetInCU: 0x1FC22, offset: 0x1FC22, size: 0x8, addend: 0x0, symName: __ZNSt3__110unique_ptrINS_15__thread_structENS_14default_deleteIS1_EEED2B7v160006Ev, symObjAddr: 0x52DC, symBinAddr: 0x100006E7C, symSize: 0x30 }
  - { offsetInCU: 0x1FC4C, offset: 0x1FC4C, size: 0x8, addend: 0x0, symName: __ZNSt3__110unique_ptrINS_15__thread_structENS_14default_deleteIS1_EEE5resetB7v160006EPS1_, symObjAddr: 0x530C, symBinAddr: 0x100006EAC, symSize: 0x78 }
  - { offsetInCU: 0x1FC90, offset: 0x1FC90, size: 0x8, addend: 0x0, symName: __ZNKSt3__114default_deleteINS_15__thread_structEEclB7v160006EPS1_, symObjAddr: 0x5384, symBinAddr: 0x100006F24, symSize: 0x4C }
...
